; Function Attrs: mustprogress uwtable
define void @_ZN9grpc_core8Combiner10FinallyRunEP12grpc_closureN4absl12lts_202407226StatusE(ptr noundef nonnull align 8 dereferenceable(184) %0, ptr noundef %1, ptr noundef readonly captures(none) %2) local_unnamed_addr #3 align 2 personality ptr @__gxx_personality_v0 {
  %4 = alloca %"class.absl::lts_20240722::Status", align 8
  %5 = load i64, ptr %2, align 8, !tbaa !59
  store i64 %5, ptr %4, align 8, !tbaa !59
  %6 = and i64 %5, 1
  %.not.i.i = icmp eq i64 %6, 0
  br i1 %.not.i.i, label %7, label %_ZN4absl12lts_202407226StatusC2ERKS1_.exit

7:                                                ; preds = %3
  %8 = inttoptr i64 %5 to ptr
  %9 = atomicrmw add ptr %8, i32 1 monotonic, align 4
  br label %_ZN4absl12lts_202407226StatusC2ERKS1_.exit

_ZN4absl12lts_202407226StatusC2ERKS1_.exit:       ; preds = %3, %7
  invoke fastcc void @_ZL21combiner_finally_execPN9grpc_core8CombinerEP12grpc_closureN4absl12lts_202407226StatusE(ptr noundef nonnull %0, ptr noundef %1, ptr noundef %4)
          to label %10 unwind label %16

10:                                               ; preds = %_ZN4absl12lts_202407226StatusC2ERKS1_.exit
  br i1 %.not.i.i, label %11, label %_ZN4absl12lts_202407226StatusD2Ev.exit

11:                                               ; preds = %10
  %12 = inttoptr i64 %5 to ptr
  invoke void @_ZNK4absl12lts_2024072215status_internal9StatusRep5UnrefEv(ptr noundef nonnull align 8 dereferenceable(48) %12)
          to label %_ZN4absl12lts_202407226StatusD2Ev.exit unwind label %13

13:                                               ; preds = %11
  %14 = landingpad { ptr, i32 }
          catch ptr null
  %15 = extractvalue { ptr, i32 } %14, 0
  tail call void @__clang_call_terminate(ptr %15) #26
  unreachable

_ZN4absl12lts_202407226StatusD2Ev.exit:           ; preds = %10, %11
  ret void

16:                                               ; preds = %_ZN4absl12lts_202407226StatusC2ERKS1_.exit
  %17 = landingpad { ptr, i32 }
          cleanup
  call void @_ZN4absl12lts_202407226StatusD2Ev(ptr noundef nonnull align 8 dereferenceable(8) %4) #24
  resume { ptr, i32 } %17
}